target datalayout = "e-m:e-p270:32:32-p271:32:32-p272:64:64-i64:64-i128:128-f80:128-n8:16:32:64-S128"
target triple = "x86_64-pc-linux-gnu"

%struct.stanza_st = type { ptr, ptr, i32, i32, i32, i32, i32, i32, [150 x %struct.pair_st], ptr, [32768 x i8] }
%struct.pair_st = type { ptr, ptr }

@.str = private unnamed_addr constant [34 x i8] c"../openssl/test/testutil/stanza.c\00", align 1
@.str.1 = private unnamed_addr constant [11 x i8] c"Reading %s\00", align 1
@.str.2 = private unnamed_addr constant [36 x i8] c"s->fp = BIO_new_file(testfile, \22r\22)\00", align 1
@.str.3 = private unnamed_addr constant [2 x i8] c"r\00", align 1

; Function Attrs: nounwind uwtable
define i32 @test_start_file(ptr noundef %0, ptr noundef %1) #0 {
  %3 = alloca i32, align 4
  %4 = alloca ptr, align 8
  %5 = alloca ptr, align 8
  store ptr %0, ptr %4, align 8, !tbaa !3
  store ptr %1, ptr %5, align 8, !tbaa !8
  %6 = load ptr, ptr %5, align 8, !tbaa !8
  call void (ptr, i32, ptr, ...) @test_info(ptr noundef @.str, i32 noundef 21, ptr noundef @.str.1, ptr noundef %6)
  %7 = load ptr, ptr %5, align 8, !tbaa !8
  call void @set_test_title(ptr noundef %7)
  %8 = load ptr, ptr %4, align 8, !tbaa !3
  call void @llvm.memset.p0.i64(ptr align 8 %8, i8 0, i64 35216, i1 false)
  %9 = load ptr, ptr %5, align 8, !tbaa !8
  %10 = call ptr @BIO_new_file(ptr noundef %9, ptr noundef @.str.3)
  %11 = load ptr, ptr %4, align 8, !tbaa !3
  %12 = getelementptr inbounds nuw %struct.stanza_st, ptr %11, i32 0, i32 1
  store ptr %10, ptr %12, align 8, !tbaa !10
  %13 = call i32 @test_ptr(ptr noundef @.str, i32 noundef 24, ptr noundef @.str.2, ptr noundef %10)
  %14 = icmp ne i32 %13, 0
  br i1 %14, label %16, label %15

15:                                               ; preds = %2
  store i32 0, ptr %3, align 4
  br label %20

16:                                               ; preds = %2
  %17 = load ptr, ptr %5, align 8, !tbaa !8
  %18 = load ptr, ptr %4, align 8, !tbaa !3
  %19 = getelementptr inbounds nuw %struct.stanza_st, ptr %18, i32 0, i32 0
  store ptr %17, ptr %19, align 8, !tbaa !14
  store i32 1, ptr %3, align 4
  br label %20

20:                                               ; preds = %16, %15
  %21 = load i32, ptr %3, align 4
  ret i32 %21
}