; Function Attrs: nounwind uwtable
define range(i32 0, 2) i32 @test_start_file(ptr noundef writeonly captures(none) initializes((0, 35216)) %0, ptr noundef %1) local_unnamed_addr #0 {
  tail call void (ptr, i32, ptr, ...) @test_info(ptr noundef nonnull @.str, i32 noundef 21, ptr noundef nonnull @.str.1, ptr noundef %1) #6
  tail call void @set_test_title(ptr noundef %1) #6
  tail call void @llvm.memset.p0.i64(ptr noundef nonnull align 8 dereferenceable(35216) %0, i8 0, i64 35216, i1 false)
  %3 = tail call ptr @BIO_new_file(ptr noundef %1, ptr noundef nonnull @.str.3) #6
  %4 = getelementptr inbounds nuw i8, ptr %0, i64 8
  store ptr %3, ptr %4, align 8, !tbaa !3
  %5 = tail call i32 @test_ptr(ptr noundef nonnull @.str, i32 noundef 24, ptr noundef nonnull @.str.2, ptr noundef %3) #6
  %.not = icmp eq i32 %5, 0
  br i1 %.not, label %7, label %6

6:                                                ; preds = %2
  store ptr %1, ptr %0, align 8, !tbaa !11
  br label %7

7:                                                ; preds = %2, %6
  %.0 = phi i32 [ 1, %6 ], [ 0, %2 ]
  ret i32 %.0
}